; Function Attrs: nounwind uwtable
define noalias nonnull ptr @l_Lean_isTracingEnabledFor___at_Lean_Compiler_LCNF_Specialize_specializeApp_x3f___spec__2___boxed(ptr noundef %0, ptr noundef %1, ptr noundef %2, ptr noundef %3, ptr noundef %4, ptr noundef %5, ptr noundef %6, ptr noundef %7) local_unnamed_addr #0 {
  %9 = getelementptr inbounds nuw i8, ptr %5, i64 104
  %10 = load ptr, ptr %9, align 8, !tbaa !4
  %11 = getelementptr inbounds nuw i8, ptr %5, i64 24
  %12 = load ptr, ptr %11, align 8, !tbaa !4
  %13 = tail call zeroext i8 @l_Lean_checkTraceOption(ptr noundef %10, ptr noundef %12, ptr noundef %0) #4
  tail call void @lean_inc_heartbeat() #4
  %14 = tail call noalias ptr @mi_malloc_small(i64 noundef 24) #4
  %15 = icmp eq ptr %14, null
  br i1 %15, label %16, label %l_Lean_isTracingEnabledFor___at_Lean_Compiler_LCNF_Specialize_specializeApp_x3f___spec__2.exit

16:                                               ; preds = %8
  tail call void @lean_internal_panic_out_of_memory() #5
  unreachable

l_Lean_isTracingEnabledFor___at_Lean_Compiler_LCNF_Specialize_specializeApp_x3f___spec__2.exit: ; preds = %8
  %17 = zext i8 %13 to i64
  %18 = shl nuw nsw i64 %17, 1
  %19 = or disjoint i64 %18, 1
  %20 = inttoptr i64 %19 to ptr
  %21 = getelementptr inbounds nuw i8, ptr %14, i64 4
  store i32 1, ptr %14, align 4, !tbaa !8
  store i32 131096, ptr %21, align 4
  %22 = getelementptr inbounds nuw i8, ptr %14, i64 8
  store ptr %20, ptr %22, align 8, !tbaa !4
  %23 = getelementptr inbounds nuw i8, ptr %14, i64 16
  store ptr %7, ptr %23, align 8, !tbaa !4
  %24 = ptrtoint ptr %6 to i64
  %25 = and i64 %24, 1
  %.not = icmp eq i64 %25, 0
  br i1 %.not, label %26, label %lean_dec.exit19

26:                                               ; preds = %l_Lean_isTracingEnabledFor___at_Lean_Compiler_LCNF_Specialize_specializeApp_x3f___spec__2.exit
  %27 = load i32, ptr %6, align 4, !tbaa !8
  %28 = icmp sgt i32 %27, 1
  br i1 %28, label %29, label %31, !prof !11

29:                                               ; preds = %26
  %30 = add nsw i32 %27, -1
  store i32 %30, ptr %6, align 4, !tbaa !8
  br label %lean_dec.exit19

31:                                               ; preds = %26
  %.not.i = icmp eq i32 %27, 0
  br i1 %.not.i, label %lean_dec.exit19, label %32

32:                                               ; preds = %31
  tail call void @lean_dec_ref_cold(ptr noundef nonnull %6) #4
  br label %lean_dec.exit19

lean_dec.exit19:                                  ; preds = %32, %31, %29, %l_Lean_isTracingEnabledFor___at_Lean_Compiler_LCNF_Specialize_specializeApp_x3f___spec__2.exit
  %33 = ptrtoint ptr %5 to i64
  %34 = and i64 %33, 1
  %.not30 = icmp eq i64 %34, 0
  br i1 %.not30, label %35, label %lean_dec.exit18

35:                                               ; preds = %lean_dec.exit19
  %36 = load i32, ptr %5, align 4, !tbaa !8
  %37 = icmp sgt i32 %36, 1
  br i1 %37, label %38, label %40, !prof !11

38:                                               ; preds = %35
  %39 = add nsw i32 %36, -1
  store i32 %39, ptr %5, align 4, !tbaa !8
  br label %lean_dec.exit18

40:                                               ; preds = %35
  %.not.i20 = icmp eq i32 %36, 0
  br i1 %.not.i20, label %lean_dec.exit18, label %41

41:                                               ; preds = %40
  tail call void @lean_dec_ref_cold(ptr noundef nonnull %5) #4
  br label %lean_dec.exit18

lean_dec.exit18:                                  ; preds = %41, %40, %38, %lean_dec.exit19
  %42 = ptrtoint ptr %4 to i64
  %43 = and i64 %42, 1
  %.not31 = icmp eq i64 %43, 0
  br i1 %.not31, label %44, label %lean_dec.exit17

44:                                               ; preds = %lean_dec.exit18
  %45 = load i32, ptr %4, align 4, !tbaa !8
  %46 = icmp sgt i32 %45, 1
  br i1 %46, label %47, label %49, !prof !11

47:                                               ; preds = %44
  %48 = add nsw i32 %45, -1
  store i32 %48, ptr %4, align 4, !tbaa !8
  br label %lean_dec.exit17

49:                                               ; preds = %44
  %.not.i22 = icmp eq i32 %45, 0
  br i1 %.not.i22, label %lean_dec.exit17, label %50

50:                                               ; preds = %49
  tail call void @lean_dec_ref_cold(ptr noundef nonnull %4) #4
  br label %lean_dec.exit17

lean_dec.exit17:                                  ; preds = %50, %49, %47, %lean_dec.exit18
  %51 = ptrtoint ptr %3 to i64
  %52 = and i64 %51, 1
  %.not32 = icmp eq i64 %52, 0
  br i1 %.not32, label %53, label %lean_dec.exit16

53:                                               ; preds = %lean_dec.exit17
  %54 = load i32, ptr %3, align 4, !tbaa !8
  %55 = icmp sgt i32 %54, 1
  br i1 %55, label %56, label %58, !prof !11

56:                                               ; preds = %53
  %57 = add nsw i32 %54, -1
  store i32 %57, ptr %3, align 4, !tbaa !8
  br label %lean_dec.exit16

58:                                               ; preds = %53
  %.not.i24 = icmp eq i32 %54, 0
  br i1 %.not.i24, label %lean_dec.exit16, label %59

59:                                               ; preds = %58
  tail call void @lean_dec_ref_cold(ptr noundef nonnull %3) #4
  br label %lean_dec.exit16

lean_dec.exit16:                                  ; preds = %59, %58, %56, %lean_dec.exit17
  %60 = ptrtoint ptr %2 to i64
  %61 = and i64 %60, 1
  %.not33 = icmp eq i64 %61, 0
  br i1 %.not33, label %62, label %lean_dec.exit15

62:                                               ; preds = %lean_dec.exit16
  %63 = load i32, ptr %2, align 4, !tbaa !8
  %64 = icmp sgt i32 %63, 1
  br i1 %64, label %65, label %67, !prof !11

65:                                               ; preds = %62
  %66 = add nsw i32 %63, -1
  store i32 %66, ptr %2, align 4, !tbaa !8
  br label %lean_dec.exit15

67:                                               ; preds = %62
  %.not.i26 = icmp eq i32 %63, 0
  br i1 %.not.i26, label %lean_dec.exit15, label %68

68:                                               ; preds = %67
  tail call void @lean_dec_ref_cold(ptr noundef nonnull %2) #4
  br label %lean_dec.exit15

lean_dec.exit15:                                  ; preds = %68, %67, %65, %lean_dec.exit16
  %69 = ptrtoint ptr %1 to i64
  %70 = and i64 %69, 1
  %.not34 = icmp eq i64 %70, 0
  br i1 %.not34, label %71, label %lean_dec.exit

71:                                               ; preds = %lean_dec.exit15
  %72 = load i32, ptr %1, align 4, !tbaa !8
  %73 = icmp sgt i32 %72, 1
  br i1 %73, label %74, label %76, !prof !11

74:                                               ; preds = %71
  %75 = add nsw i32 %72, -1
  store i32 %75, ptr %1, align 4, !tbaa !8
  br label %lean_dec.exit

76:                                               ; preds = %71
  %.not.i28 = icmp eq i32 %72, 0
  br i1 %.not.i28, label %lean_dec.exit, label %77

77:                                               ; preds = %76
  tail call void @lean_dec_ref_cold(ptr noundef nonnull %1) #4
  br label %lean_dec.exit

lean_dec.exit:                                    ; preds = %77, %76, %74, %lean_dec.exit15
  ret ptr %14
}